; Function Attrs: mustprogress uwtable
define dso_local void @_Z29OutputStructUnionDeclarationsRSo(ptr noundef nonnull align 8 dereferenceable(8) %0) local_unnamed_addr #4 personality ptr @__gxx_personality_v0 {
  %2 = alloca %"class.std::__cxx11::basic_string", align 8
  %3 = alloca %"class.std::allocator.5", align 1
  call void @_ZNSaIcEC1Ev(ptr noundef nonnull align 1 dereferenceable(1) %3) #23
  invoke void @_ZNSt7__cxx1112basic_stringIcSt11char_traitsIcESaIcEEC1EPKcRKS3_(ptr noundef nonnull align 8 dereferenceable(32) %2, ptr noundef nonnull @.str.71, ptr noundef nonnull align 1 dereferenceable(1) %3)
          to label %4 unwind label %19

4:                                                ; preds = %1
  invoke void @_Z19output_comment_lineRSoRKNSt7__cxx1112basic_stringIcSt11char_traitsIcESaIcEEE(ptr noundef nonnull align 8 dereferenceable(8) %0, ptr noundef nonnull align 8 dereferenceable(32) %2)
          to label %5 unwind label %21

5:                                                ; preds = %4
  call void @_ZNSt7__cxx1112basic_stringIcSt11char_traitsIcESaIcEED1Ev(ptr noundef nonnull align 8 dereferenceable(32) %2) #23
  call void @_ZNSaIcED1Ev(ptr noundef nonnull align 1 dereferenceable(1) %3) #23
  %6 = load ptr, ptr getelementptr inbounds (%"class.std::vector", ptr @_ZL8AllTypes, i64 0, i32 0, i32 0, i32 0, i32 1), align 8
  %7 = load ptr, ptr @_ZL8AllTypes, align 8
  %.not15 = icmp eq ptr %6, %7
  br i1 %.not15, label %._crit_edge, label %.lr.ph

.lr.ph:                                           ; preds = %5, %24
  %8 = phi ptr [ %25, %24 ], [ %7, %5 ]
  %9 = phi ptr [ %26, %24 ], [ %6, %5 ]
  %.014 = phi i64 [ %27, %24 ], [ 0, %5 ]
  %10 = getelementptr inbounds ptr, ptr %8, i64 %.014
  %11 = load ptr, ptr %10, align 8
  %12 = getelementptr inbounds i8, ptr %11, i64 76
  %13 = load i8, ptr %12, align 4
  %14 = and i8 %13, 1
  %.not = icmp eq i8 %14, 0
  br i1 %.not, label %24, label %15

15:                                               ; preds = %.lr.ph
  %16 = load i32, ptr %11, align 8
  %17 = and i32 %16, -2
  %switch = icmp eq i32 %17, 2
  br i1 %switch, label %18, label %24

18:                                               ; preds = %15
  call void @_Z17OutputStructUnionP4TypeRSo(ptr noundef nonnull %11, ptr noundef nonnull align 8 dereferenceable(8) %0)
  %.pre = load ptr, ptr getelementptr inbounds (%"class.std::vector", ptr @_ZL8AllTypes, i64 0, i32 0, i32 0, i32 0, i32 1), align 8
  %.pre16 = load ptr, ptr @_ZL8AllTypes, align 8
  br label %24

19:                                               ; preds = %1
  %20 = landingpad { ptr, i32 }
          cleanup
  br label %23

21:                                               ; preds = %4
  %22 = landingpad { ptr, i32 }
          cleanup
  call void @_ZNSt7__cxx1112basic_stringIcSt11char_traitsIcESaIcEED1Ev(ptr noundef nonnull align 8 dereferenceable(32) %2) #23
  br label %23

23:                                               ; preds = %21, %19
  %.pn = phi { ptr, i32 } [ %22, %21 ], [ %20, %19 ]
  call void @_ZNSaIcED1Ev(ptr noundef nonnull align 1 dereferenceable(1) %3) #23
  resume { ptr, i32 } %.pn

24:                                               ; preds = %15, %.lr.ph, %18
  %25 = phi ptr [ %8, %15 ], [ %8, %.lr.ph ], [ %.pre16, %18 ]
  %26 = phi ptr [ %9, %15 ], [ %9, %.lr.ph ], [ %.pre, %18 ]
  %27 = add nuw i64 %.014, 1
  %28 = ptrtoint ptr %26 to i64
  %29 = ptrtoint ptr %25 to i64
  %30 = sub i64 %28, %29
  %31 = ashr exact i64 %30, 3
  %32 = icmp ult i64 %27, %31
  br i1 %32, label %.lr.ph, label %._crit_edge, !llvm.loop !52

._crit_edge:                                      ; preds = %24, %5
  ret void
}